target datalayout = "e-m:e-p270:32:32-p271:32:32-p272:64:64-i64:64-i128:128-f80:128-n8:16:32:64-S128"
target triple = "x86_64-pc-linux-gnu"

%"class.gmx::BiasState" = type { %"class.gmx::CoordState", %"class.std::vector", %"class.std::vector.0", %"class.gmx::HistogramSize", [4 x i32], [4 x i32], ptr, %"class.std::vector.5", %"class.std::vector.7" }
%"class.gmx::CoordState" = type { [4 x double], i32, i32 }
%"class.std::vector" = type { %"struct.std::_Vector_base" }
%"struct.std::_Vector_base" = type { %"struct.std::_Vector_base<gmx::PointState, std::allocator<gmx::PointState>>::_Vector_impl" }
%"struct.std::_Vector_base<gmx::PointState, std::allocator<gmx::PointState>>::_Vector_impl" = type { %"struct.std::_Vector_base<gmx::PointState, std::allocator<gmx::PointState>>::_Vector_impl_data" }
%"struct.std::_Vector_base<gmx::PointState, std::allocator<gmx::PointState>>::_Vector_impl_data" = type { ptr, ptr, ptr }
%"class.std::vector.0" = type { %"struct.std::_Vector_base.1" }
%"struct.std::_Vector_base.1" = type { %"struct.std::_Vector_base<double, std::allocator<double>>::_Vector_impl" }
%"struct.std::_Vector_base<double, std::allocator<double>>::_Vector_impl" = type { %"struct.std::_Vector_base<double, std::allocator<double>>::_Vector_impl_data" }
%"struct.std::_Vector_base<double, std::allocator<double>>::_Vector_impl_data" = type { ptr, ptr, ptr }
%"class.gmx::HistogramSize" = type <{ i64, double, i8, [7 x i8], double, i8, [7 x i8], double, double, i8, [7 x i8] }>
%"class.std::vector.5" = type { %"struct.std::_Vector_base.6" }
%"struct.std::_Vector_base.6" = type { %"struct.std::_Vector_base<double, gmx::DefaultInitializationAllocator<double>>::_Vector_impl" }
%"struct.std::_Vector_base<double, gmx::DefaultInitializationAllocator<double>>::_Vector_impl" = type { %"struct.std::_Vector_base<double, gmx::DefaultInitializationAllocator<double>>::_Vector_impl_data" }
%"struct.std::_Vector_base<double, gmx::DefaultInitializationAllocator<double>>::_Vector_impl_data" = type { ptr, ptr, ptr }
%"class.std::vector.7" = type { %"struct.std::_Vector_base.8" }
%"struct.std::_Vector_base.8" = type { %"struct.std::_Vector_base<std::vector<double>, std::allocator<std::vector<double>>>::_Vector_impl" }
%"struct.std::_Vector_base<std::vector<double>, std::allocator<std::vector<double>>>::_Vector_impl" = type { %"struct.std::_Vector_base<std::vector<double>, std::allocator<std::vector<double>>>::_Vector_impl_data" }
%"struct.std::_Vector_base<std::vector<double>, std::allocator<std::vector<double>>>::_Vector_impl_data" = type { ptr, ptr, ptr }
%"class.gmx::PointState" = type { double, double, double, double, double, double, double, i64, double, double, double, double }
%"class.__gnu_cxx::__normal_iterator.57" = type { ptr }

; Function Attrs: mustprogress nounwind uwtable
define linkonce_odr noundef nonnull align 8 dereferenceable(8) ptr @_ZNK9__gnu_cxx17__normal_iteratorIPN3gmx10PointStateESt6vectorIS2_SaIS2_EEE4baseEv(ptr noundef nonnull align 8 dereferenceable(8) %0) #2 comdat align 2 {
  %2 = alloca ptr, align 8
  store ptr %0, ptr %2, align 8, !tbaa !286
  %3 = load ptr, ptr %2, align 8
  %4 = getelementptr inbounds nuw %"class.__gnu_cxx::__normal_iterator.57", ptr %3, i32 0, i32 0
  ret ptr %4
}

; Function Attrs: mustprogress nounwind uwtable
define linkonce_odr void @_ZN9__gnu_cxx17__normal_iteratorIPN3gmx10PointStateESt6vectorIS2_SaIS2_EEEC2ERKS3_(ptr noundef nonnull align 8 dereferenceable(8) %0, ptr noundef nonnull align 8 dereferenceable(8) %1) unnamed_addr #2 comdat align 2 {
  %3 = alloca ptr, align 8
  %4 = alloca ptr, align 8
  store ptr %0, ptr %3, align 8, !tbaa !286
  store ptr %1, ptr %4, align 8, !tbaa !329
  %5 = load ptr, ptr %3, align 8
  %6 = getelementptr inbounds nuw %"class.__gnu_cxx::__normal_iterator.57", ptr %5, i32 0, i32 0
  %7 = load ptr, ptr %4, align 8, !tbaa !329
  %8 = load ptr, ptr %7, align 8, !tbaa !21
  store ptr %8, ptr %6, align 8, !tbaa !288
  ret void
}

; Function Attrs: mustprogress nounwind uwtable
define linkonce_odr void @_ZN3gmx10PointState12setLogPmfSumEd(ptr noundef nonnull align 8 dereferenceable(96) %0, double noundef %1) #2 comdat align 2 {
  %3 = alloca ptr, align 8
  %4 = alloca double, align 8
  store ptr %0, ptr %3, align 8, !tbaa !21
  store double %1, ptr %4, align 8, !tbaa !39
  %5 = load ptr, ptr %3, align 8
  %6 = load double, ptr %4, align 8, !tbaa !39
  %7 = getelementptr inbounds nuw %"class.gmx::PointState", ptr %5, i32 0, i32 8
  store double %6, ptr %7, align 8, !tbaa !25
  ret void
}

; Function Attrs: mustprogress nounwind uwtable
define linkonce_odr noundef double @_ZNK3gmx13HistogramSize13histogramSizeEv(ptr noundef nonnull align 8 dereferenceable(57) %0) #2 comdat align 2 {
  %2 = alloca ptr, align 8
  store ptr %0, ptr %2, align 8, !tbaa !331
  %3 = load ptr, ptr %2, align 8
  %4 = getelementptr inbounds nuw %"class.gmx::HistogramSize", ptr %3, i32 0, i32 1
  %5 = load double, ptr %4, align 8, !tbaa !382
  ret double %5
}

; Function Attrs: mustprogress nounwind uwtable
define linkonce_odr noundef nonnull align 8 dereferenceable(8) ptr @_ZN9__gnu_cxx17__normal_iteratorIPN3gmx10PointStateESt6vectorIS2_SaIS2_EEEppEv(ptr noundef nonnull align 8 dereferenceable(8) %0) #2 comdat align 2 {
  %2 = alloca ptr, align 8
  store ptr %0, ptr %2, align 8, !tbaa !286
  %3 = load ptr, ptr %2, align 8
  %4 = getelementptr inbounds nuw %"class.__gnu_cxx::__normal_iterator.57", ptr %3, i32 0, i32 0
  %5 = load ptr, ptr %4, align 8, !tbaa !288
  %6 = getelementptr inbounds nuw %"class.gmx::PointState", ptr %5, i32 1
  store ptr %6, ptr %4, align 8, !tbaa !288
  ret ptr %3
}

; Function Attrs: mustprogress nounwind uwtable
define linkonce_odr noundef double @_ZNK3gmx10PointState10freeEnergyEv(ptr noundef nonnull align 8 dereferenceable(96) %0) #2 comdat align 2 {
  %2 = alloca ptr, align 8
  store ptr %0, ptr %2, align 8, !tbaa !21
  %3 = load ptr, ptr %2, align 8
  %4 = getelementptr inbounds nuw %"class.gmx::PointState", ptr %3, i32 0, i32 1
  %5 = load double, ptr %4, align 8, !tbaa !290
  ret double %5
}

; Function Attrs: mustprogress nounwind uwtable
define linkonce_odr noundef double @_ZNK3gmx10PointState9logPmfSumEv(ptr noundef nonnull align 8 dereferenceable(96) %0) #2 comdat align 2 {
  %2 = alloca ptr, align 8
  store ptr %0, ptr %2, align 8, !tbaa !21
  %3 = load ptr, ptr %2, align 8
  %4 = getelementptr inbounds nuw %"class.gmx::PointState", ptr %3, i32 0, i32 8
  %5 = load double, ptr %4, align 8, !tbaa !25
  ret double %5
}

; Function Attrs: mustprogress nounwind uwtable
define linkonce_odr noundef zeroext i1 @_ZNK3gmx10PointState14inTargetRegionEv(ptr noundef nonnull align 8 dereferenceable(96) %0) #2 comdat align 2 {
  %2 = alloca ptr, align 8
  store ptr %0, ptr %2, align 8, !tbaa !21
  %3 = load ptr, ptr %2, align 8
  %4 = getelementptr inbounds nuw %"class.gmx::PointState", ptr %3, i32 0, i32 2
  %5 = load double, ptr %4, align 8, !tbaa !22
  %6 = fcmp ogt double %5, 0.000000e+00
  ret i1 %6
}

; Function Attrs: mustprogress nounwind uwtable
define linkonce_odr noundef nonnull align 8 dereferenceable(96) ptr @_ZNK9__gnu_cxx17__normal_iteratorIPN3gmx10PointStateESt6vectorIS2_SaIS2_EEEdeEv(ptr noundef nonnull align 8 dereferenceable(8) %0) #2 comdat align 2 {
  %2 = alloca ptr, align 8
  store ptr %0, ptr %2, align 8, !tbaa !286
  %3 = load ptr, ptr %2, align 8
  %4 = getelementptr inbounds nuw %"class.__gnu_cxx::__normal_iterator.57", ptr %3, i32 0, i32 0
  %5 = load ptr, ptr %4, align 8, !tbaa !288
  ret ptr %5
}

; Function Attrs: inlinehint mustprogress nounwind uwtable
define linkonce_odr noundef zeroext i1 @_ZN9__gnu_cxxneIPN3gmx10PointStateESt6vectorIS2_SaIS2_EEEEbRKNS_17__normal_iteratorIT_T0_EESC_(ptr noundef nonnull align 8 dereferenceable(8) %0, ptr noundef nonnull align 8 dereferenceable(8) %1) #4 comdat {
  %3 = alloca ptr, align 8
  %4 = alloca ptr, align 8
  store ptr %0, ptr %3, align 8, !tbaa !286
  store ptr %1, ptr %4, align 8, !tbaa !286
  %5 = load ptr, ptr %3, align 8, !tbaa !286
  %6 = call noundef nonnull align 8 dereferenceable(8) ptr @_ZNK9__gnu_cxx17__normal_iteratorIPN3gmx10PointStateESt6vectorIS2_SaIS2_EEE4baseEv(ptr noundef nonnull align 8 dereferenceable(8) %5) #28
  %7 = load ptr, ptr %6, align 8, !tbaa !21
  %8 = load ptr, ptr %4, align 8, !tbaa !286
  %9 = call noundef nonnull align 8 dereferenceable(8) ptr @_ZNK9__gnu_cxx17__normal_iteratorIPN3gmx10PointStateESt6vectorIS2_SaIS2_EEE4baseEv(ptr noundef nonnull align 8 dereferenceable(8) %8) #28
  %10 = load ptr, ptr %9, align 8, !tbaa !21
  %11 = icmp ne ptr %7, %10
  ret i1 %11
}

; Function Attrs: mustprogress nounwind uwtable
define linkonce_odr ptr @_ZNSt6vectorIN3gmx10PointStateESaIS1_EE3endEv(ptr noundef nonnull align 8 dereferenceable(24) %0) #2 comdat align 2 {
  %2 = alloca %"class.__gnu_cxx::__normal_iterator.57", align 8
  %3 = alloca ptr, align 8
  store ptr %0, ptr %3, align 8, !tbaa !15
  %4 = load ptr, ptr %3, align 8
  %5 = getelementptr inbounds nuw %"struct.std::_Vector_base", ptr %4, i32 0, i32 0
  %6 = getelementptr inbounds nuw %"struct.std::_Vector_base<gmx::PointState, std::allocator<gmx::PointState>>::_Vector_impl_data", ptr %5, i32 0, i32 1
  call void @_ZN9__gnu_cxx17__normal_iteratorIPN3gmx10PointStateESt6vectorIS2_SaIS2_EEEC2ERKS3_(ptr noundef nonnull align 8 dereferenceable(8) %2, ptr noundef nonnull align 8 dereferenceable(8) %6) #28
  %7 = getelementptr inbounds nuw %"class.__gnu_cxx::__normal_iterator.57", ptr %2, i32 0, i32 0
  %8 = load ptr, ptr %7, align 8
  ret ptr %8
}

; Function Attrs: mustprogress nounwind uwtable
define linkonce_odr ptr @_ZNSt6vectorIN3gmx10PointStateESaIS1_EE5beginEv(ptr noundef nonnull align 8 dereferenceable(24) %0) #2 comdat align 2 {
  %2 = alloca %"class.__gnu_cxx::__normal_iterator.57", align 8
  %3 = alloca ptr, align 8
  store ptr %0, ptr %3, align 8, !tbaa !15
  %4 = load ptr, ptr %3, align 8
  %5 = getelementptr inbounds nuw %"struct.std::_Vector_base", ptr %4, i32 0, i32 0
  %6 = getelementptr inbounds nuw %"struct.std::_Vector_base<gmx::PointState, std::allocator<gmx::PointState>>::_Vector_impl_data", ptr %5, i32 0, i32 0
  call void @_ZN9__gnu_cxx17__normal_iteratorIPN3gmx10PointStateESt6vectorIS2_SaIS2_EEEC2ERKS3_(ptr noundef nonnull align 8 dereferenceable(8) %2, ptr noundef nonnull align 8 dereferenceable(8) %6) #28
  %7 = getelementptr inbounds nuw %"class.__gnu_cxx::__normal_iterator.57", ptr %2, i32 0, i32 0
  %8 = load ptr, ptr %7, align 8
  ret ptr %8
}

; Function Attrs: mustprogress nounwind uwtable
define void @_ZN3gmx9BiasState12normalizePmfEi(ptr noundef nonnull align 8 dereferenceable(240) %0, i32 noundef %1) #2 align 2 {
  %3 = alloca ptr, align 8
  %4 = alloca i32, align 4
  %5 = alloca double, align 8
  %6 = alloca double, align 8
  %7 = alloca ptr, align 8
  %8 = alloca %"class.__gnu_cxx::__normal_iterator.57", align 8
  %9 = alloca %"class.__gnu_cxx::__normal_iterator.57", align 8
  %10 = alloca ptr, align 8
  %11 = alloca double, align 8
  %12 = alloca double, align 8
  %13 = alloca ptr, align 8
  %14 = alloca %"class.__gnu_cxx::__normal_iterator.57", align 8
  %15 = alloca %"class.__gnu_cxx::__normal_iterator.57", align 8
  %16 = alloca ptr, align 8
  store ptr %0, ptr %3, align 8, !tbaa !4
  store i32 %1, ptr %4, align 4, !tbaa !46
  %17 = load ptr, ptr %3, align 8
  call void @llvm.lifetime.start.p0(i64 8, ptr %5) #28
  store double 0.000000e+00, ptr %5, align 8, !tbaa !39
  call void @llvm.lifetime.start.p0(i64 8, ptr %6) #28
  store double 0.000000e+00, ptr %6, align 8, !tbaa !39
  call void @llvm.lifetime.start.p0(i64 8, ptr %7) #28
  %18 = getelementptr inbounds nuw %"class.gmx::BiasState", ptr %17, i32 0, i32 1
  store ptr %18, ptr %7, align 8, !tbaa !15
  call void @llvm.lifetime.start.p0(i64 8, ptr %8) #28
  %19 = load ptr, ptr %7, align 8, !tbaa !15
  %20 = call ptr @_ZNSt6vectorIN3gmx10PointStateESaIS1_EE5beginEv(ptr noundef nonnull align 8 dereferenceable(24) %19) #28
  %21 = getelementptr inbounds nuw %"class.__gnu_cxx::__normal_iterator.57", ptr %8, i32 0, i32 0
  store ptr %20, ptr %21, align 8
  call void @llvm.lifetime.start.p0(i64 8, ptr %9) #28
  %22 = load ptr, ptr %7, align 8, !tbaa !15
  %23 = call ptr @_ZNSt6vectorIN3gmx10PointStateESaIS1_EE3endEv(ptr noundef nonnull align 8 dereferenceable(24) %22) #28
  %24 = getelementptr inbounds nuw %"class.__gnu_cxx::__normal_iterator.57", ptr %9, i32 0, i32 0
  store ptr %23, ptr %24, align 8
  br label %25

25:                                               ; preds = %45, %2
  %26 = call noundef zeroext i1 @_ZN9__gnu_cxxneIPN3gmx10PointStateESt6vectorIS2_SaIS2_EEEEbRKNS_17__normal_iteratorIT_T0_EESC_(ptr noundef nonnull align 8 dereferenceable(8) %8, ptr noundef nonnull align 8 dereferenceable(8) %9) #28
  br i1 %26, label %28, label %27

27:                                               ; preds = %25
  call void @llvm.lifetime.end.p0(i64 8, ptr %9) #28
  call void @llvm.lifetime.end.p0(i64 8, ptr %8) #28
  call void @llvm.lifetime.end.p0(i64 8, ptr %7) #28
  br label %47

28:                                               ; preds = %25
  call void @llvm.lifetime.start.p0(i64 8, ptr %10) #28
  %29 = call noundef nonnull align 8 dereferenceable(96) ptr @_ZNK9__gnu_cxx17__normal_iteratorIPN3gmx10PointStateESt6vectorIS2_SaIS2_EEEdeEv(ptr noundef nonnull align 8 dereferenceable(8) %8) #28
  store ptr %29, ptr %10, align 8, !tbaa !21
  %30 = load ptr, ptr %10, align 8, !tbaa !21
  %31 = call noundef zeroext i1 @_ZNK3gmx10PointState14inTargetRegionEv(ptr noundef nonnull align 8 dereferenceable(96) %30)
  br i1 %31, label %32, label %44

32:                                               ; preds = %28
  %33 = load ptr, ptr %10, align 8, !tbaa !21
  %34 = call noundef double @_ZNK3gmx10PointState9logPmfSumEv(ptr noundef nonnull align 8 dereferenceable(96) %33)
  %35 = call double @exp(double noundef %34) #28, !tbaa !46
  %36 = load double, ptr %5, align 8, !tbaa !39
  %37 = fadd double %36, %35
  store double %37, ptr %5, align 8, !tbaa !39
  %38 = load ptr, ptr %10, align 8, !tbaa !21
  %39 = call noundef double @_ZNK3gmx10PointState10freeEnergyEv(ptr noundef nonnull align 8 dereferenceable(96) %38)
  %40 = fneg double %39
  %41 = call double @exp(double noundef %40) #28, !tbaa !46
  %42 = load double, ptr %6, align 8, !tbaa !39
  %43 = fadd double %42, %41
  store double %43, ptr %6, align 8, !tbaa !39
  br label %44

44:                                               ; preds = %32, %28
  call void @llvm.lifetime.end.p0(i64 8, ptr %10) #28
  br label %45

45:                                               ; preds = %44
  %46 = call noundef nonnull align 8 dereferenceable(8) ptr @_ZN9__gnu_cxx17__normal_iteratorIPN3gmx10PointStateESt6vectorIS2_SaIS2_EEEppEv(ptr noundef nonnull align 8 dereferenceable(8) %8) #28
  br label %25

47:                                               ; preds = %27
  call void @llvm.lifetime.start.p0(i64 8, ptr %11) #28
  %48 = getelementptr inbounds nuw %"class.gmx::BiasState", ptr %17, i32 0, i32 3
  %49 = call noundef double @_ZNK3gmx13HistogramSize13histogramSizeEv(ptr noundef nonnull align 8 dereferenceable(57) %48)
  %50 = load i32, ptr %4, align 4, !tbaa !46
  %51 = sitofp i32 %50 to double
  %52 = fdiv double %49, %51
  store double %52, ptr %11, align 8, !tbaa !39
  call void @llvm.lifetime.start.p0(i64 8, ptr %12) #28
  %53 = load double, ptr %11, align 8, !tbaa !39
  %54 = load double, ptr %6, align 8, !tbaa !39
  %55 = fmul double %53, %54
  %56 = load double, ptr %5, align 8, !tbaa !39
  %57 = fdiv double %55, %56
  %58 = call double @log(double noundef %57) #28, !tbaa !46
  store double %58, ptr %12, align 8, !tbaa !39
  call void @llvm.lifetime.start.p0(i64 8, ptr %13) #28
  %59 = getelementptr inbounds nuw %"class.gmx::BiasState", ptr %17, i32 0, i32 1
  store ptr %59, ptr %13, align 8, !tbaa !15
  call void @llvm.lifetime.start.p0(i64 8, ptr %14) #28
  %60 = load ptr, ptr %13, align 8, !tbaa !15
  %61 = call ptr @_ZNSt6vectorIN3gmx10PointStateESaIS1_EE5beginEv(ptr noundef nonnull align 8 dereferenceable(24) %60) #28
  %62 = getelementptr inbounds nuw %"class.__gnu_cxx::__normal_iterator.57", ptr %14, i32 0, i32 0
  store ptr %61, ptr %62, align 8
  call void @llvm.lifetime.start.p0(i64 8, ptr %15) #28
  %63 = load ptr, ptr %13, align 8, !tbaa !15
  %64 = call ptr @_ZNSt6vectorIN3gmx10PointStateESaIS1_EE3endEv(ptr noundef nonnull align 8 dereferenceable(24) %63) #28
  %65 = getelementptr inbounds nuw %"class.__gnu_cxx::__normal_iterator.57", ptr %15, i32 0, i32 0
  store ptr %64, ptr %65, align 8
  br label %66

66:                                               ; preds = %80, %47
  %67 = call noundef zeroext i1 @_ZN9__gnu_cxxneIPN3gmx10PointStateESt6vectorIS2_SaIS2_EEEEbRKNS_17__normal_iteratorIT_T0_EESC_(ptr noundef nonnull align 8 dereferenceable(8) %14, ptr noundef nonnull align 8 dereferenceable(8) %15) #28
  br i1 %67, label %69, label %68

68:                                               ; preds = %66
  call void @llvm.lifetime.end.p0(i64 8, ptr %15) #28
  call void @llvm.lifetime.end.p0(i64 8, ptr %14) #28
  call void @llvm.lifetime.end.p0(i64 8, ptr %13) #28
  br label %82

69:                                               ; preds = %66
  call void @llvm.lifetime.start.p0(i64 8, ptr %16) #28
  %70 = call noundef nonnull align 8 dereferenceable(96) ptr @_ZNK9__gnu_cxx17__normal_iteratorIPN3gmx10PointStateESt6vectorIS2_SaIS2_EEEdeEv(ptr noundef nonnull align 8 dereferenceable(8) %14) #28
  store ptr %70, ptr %16, align 8, !tbaa !21
  %71 = load ptr, ptr %16, align 8, !tbaa !21
  %72 = call noundef zeroext i1 @_ZNK3gmx10PointState14inTargetRegionEv(ptr noundef nonnull align 8 dereferenceable(96) %71)
  br i1 %72, label %73, label %79

73:                                               ; preds = %69
  %74 = load ptr, ptr %16, align 8, !tbaa !21
  %75 = load ptr, ptr %16, align 8, !tbaa !21
  %76 = call noundef double @_ZNK3gmx10PointState9logPmfSumEv(ptr noundef nonnull align 8 dereferenceable(96) %75)
  %77 = load double, ptr %12, align 8, !tbaa !39
  %78 = fadd double %76, %77
  call void @_ZN3gmx10PointState12setLogPmfSumEd(ptr noundef nonnull align 8 dereferenceable(96) %74, double noundef %78)
  br label %79

79:                                               ; preds = %73, %69
  call void @llvm.lifetime.end.p0(i64 8, ptr %16) #28
  br label %80

80:                                               ; preds = %79
  %81 = call noundef nonnull align 8 dereferenceable(8) ptr @_ZN9__gnu_cxx17__normal_iteratorIPN3gmx10PointStateESt6vectorIS2_SaIS2_EEEppEv(ptr noundef nonnull align 8 dereferenceable(8) %14) #28
  br label %66

82:                                               ; preds = %68
  call void @llvm.lifetime.end.p0(i64 8, ptr %12) #28
  call void @llvm.lifetime.end.p0(i64 8, ptr %11) #28
  call void @llvm.lifetime.end.p0(i64 8, ptr %6) #28
  call void @llvm.lifetime.end.p0(i64 8, ptr %5) #28
  ret void
}