; Function Attrs: mustprogress nofree nounwind memory(readwrite, inaccessiblemem: write) uwtable
define void @_ZN3gmx9BiasState12normalizePmfEi(ptr noundef nonnull readonly align 8 captures(none) dereferenceable(240) %0, i32 noundef %1) local_unnamed_addr #25 align 2 {
  %3 = getelementptr inbounds nuw i8, ptr %0, i64 40
  %4 = load ptr, ptr %3, align 8, !tbaa !98
  %5 = getelementptr inbounds nuw i8, ptr %0, i64 48
  %6 = load ptr, ptr %5, align 8, !tbaa !98
  %.not27 = icmp eq ptr %4, %6
  br i1 %.not27, label %._crit_edge, label %.lr.ph

._crit_edge:                                      ; preds = %27, %2
  %.017.lcssa = phi double [ 0.000000e+00, %2 ], [ %.118, %27 ]
  %.0.lcssa = phi double [ 0.000000e+00, %2 ], [ %.1, %27 ]
  %7 = getelementptr inbounds nuw i8, ptr %0, i64 96
  %8 = load double, ptr %7, align 8, !tbaa !176
  %9 = sitofp i32 %1 to double
  %10 = fdiv double %8, %9
  %11 = fmul double %.017.lcssa, %10
  %12 = fdiv double %11, %.0.lcssa
  %13 = tail call double @log(double noundef %12) #33, !tbaa !30
  br i1 %.not27, label %._crit_edge36, label %.lr.ph35

.lr.ph:                                           ; preds = %2, %27
  %.030 = phi double [ %.1, %27 ], [ 0.000000e+00, %2 ]
  %.01729 = phi double [ %.118, %27 ], [ 0.000000e+00, %2 ]
  %.sroa.023.028 = phi ptr [ %28, %27 ], [ %4, %2 ]
  %14 = getelementptr inbounds nuw i8, ptr %.sroa.023.028, i64 16
  %15 = load double, ptr %14, align 8, !tbaa !11
  %16 = fcmp ogt double %15, 0.000000e+00
  br i1 %16, label %17, label %27

17:                                               ; preds = %.lr.ph
  %18 = getelementptr inbounds nuw i8, ptr %.sroa.023.028, i64 64
  %19 = load double, ptr %18, align 8, !tbaa !15
  %20 = tail call double @exp(double noundef %19) #33, !tbaa !30
  %21 = fadd double %.030, %20
  %22 = getelementptr inbounds nuw i8, ptr %.sroa.023.028, i64 8
  %23 = load double, ptr %22, align 8, !tbaa !99
  %24 = fneg double %23
  %25 = tail call double @exp(double noundef %24) #33, !tbaa !30
  %26 = fadd double %.01729, %25
  br label %27

27:                                               ; preds = %17, %.lr.ph
  %.118 = phi double [ %26, %17 ], [ %.01729, %.lr.ph ]
  %.1 = phi double [ %21, %17 ], [ %.030, %.lr.ph ]
  %28 = getelementptr inbounds nuw i8, ptr %.sroa.023.028, i64 96
  %.not = icmp eq ptr %28, %6
  br i1 %.not, label %._crit_edge, label %.lr.ph

._crit_edge36:                                    ; preds = %36, %._crit_edge
  ret void

.lr.ph35:                                         ; preds = %._crit_edge, %36
  %.sroa.019.033 = phi ptr [ %37, %36 ], [ %4, %._crit_edge ]
  %29 = getelementptr inbounds nuw i8, ptr %.sroa.019.033, i64 16
  %30 = load double, ptr %29, align 8, !tbaa !11
  %31 = fcmp ogt double %30, 0.000000e+00
  br i1 %31, label %32, label %36

32:                                               ; preds = %.lr.ph35
  %33 = getelementptr inbounds nuw i8, ptr %.sroa.019.033, i64 64
  %34 = load double, ptr %33, align 8, !tbaa !15
  %35 = fadd double %13, %34
  store double %35, ptr %33, align 8, !tbaa !15
  br label %36

36:                                               ; preds = %32, %.lr.ph35
  %37 = getelementptr inbounds nuw i8, ptr %.sroa.019.033, i64 96
  %.not26 = icmp eq ptr %37, %6
  br i1 %.not26, label %._crit_edge36, label %.lr.ph35
}